; Function Attrs: nounwind uwtable
define internal fastcc ptr @make_array(ptr noundef %0, i8 noundef signext %1, ptr noundef %2) unnamed_addr #0 {
  %4 = sext i8 %1 to i32
  %5 = tail call ptr @PyUnicode_FromOrdinal(i32 noundef %4) #11
  %6 = icmp eq ptr %5, null
  br i1 %6, label %Py_DECREF.exit, label %7

7:                                                ; preds = %3
  %8 = tail call ptr @PyTuple_New(i64 noundef 2) #11
  %9 = icmp eq ptr %8, null
  br i1 %9, label %10, label %15

10:                                               ; preds = %7
  %11 = load i32, ptr %5, align 8, !tbaa !17
  %.not.i = icmp sgt i32 %11, -1
  br i1 %.not.i, label %12, label %Py_DECREF.exit

12:                                               ; preds = %10
  %13 = add nsw i32 %11, -1
  store i32 %13, ptr %5, align 8, !tbaa !17
  %14 = icmp eq i32 %13, 0
  br i1 %14, label %Py_DECREF.exit.sink.split, label %Py_DECREF.exit

15:                                               ; preds = %7
  %16 = getelementptr inbounds nuw i8, ptr %8, i64 24
  store ptr %5, ptr %16, align 8, !tbaa !18
  %17 = load i32, ptr %2, align 8, !tbaa !17
  %18 = icmp slt i32 %17, 0
  br i1 %18, label %_Py_NewRef.exit, label %19

19:                                               ; preds = %15
  %20 = add nuw i32 %17, 1
  store i32 %20, ptr %2, align 8, !tbaa !17
  br label %_Py_NewRef.exit

_Py_NewRef.exit:                                  ; preds = %15, %19
  %21 = getelementptr i8, ptr %8, i64 32
  store ptr %2, ptr %21, align 8, !tbaa !18
  %22 = tail call ptr @array_new(ptr noundef %0, ptr noundef nonnull %8, ptr noundef null)
  %23 = load i32, ptr %8, align 8, !tbaa !17
  %.not.i16 = icmp sgt i32 %23, -1
  br i1 %.not.i16, label %24, label %Py_DECREF.exit

24:                                               ; preds = %_Py_NewRef.exit
  %25 = add nsw i32 %23, -1
  store i32 %25, ptr %8, align 8, !tbaa !17
  %26 = icmp eq i32 %25, 0
  br i1 %26, label %Py_DECREF.exit.sink.split, label %Py_DECREF.exit

Py_DECREF.exit.sink.split:                        ; preds = %24, %12
  %.sink = phi ptr [ %5, %12 ], [ %8, %24 ]
  %.0.ph = phi ptr [ null, %12 ], [ %22, %24 ]
  tail call void @_Py_Dealloc(ptr noundef nonnull %.sink) #11
  br label %Py_DECREF.exit

Py_DECREF.exit:                                   ; preds = %Py_DECREF.exit.sink.split, %24, %_Py_NewRef.exit, %12, %10, %3
  %.0 = phi ptr [ null, %3 ], [ null, %10 ], [ null, %12 ], [ %22, %_Py_NewRef.exit ], [ %22, %24 ], [ %.0.ph, %Py_DECREF.exit.sink.split ]
  ret ptr %.0
}